target datalayout = "e-m:e-p270:32:32-p271:32:32-p272:64:64-i64:64-i128:128-f80:128-n8:16:32:64-S128"
target triple = "x86_64-pc-linux-gnu"

%struct.PageHeaderData = type { %struct.PageXLogRecPtr, i16, i16, i16, i16, i16, i16, i32, [0 x %struct.ItemIdData] }
%struct.PageXLogRecPtr = type { i32, i32 }
%struct.ItemIdData = type { i32 }

@.str.1 = private unnamed_addr constant [10 x i8] c"bufpage.c\00", align 1
@.str.2 = private unnamed_addr constant [62 x i8] c"corrupted page pointers: lower = %u, upper = %u, special = %u\00", align 1
@.str.8 = private unnamed_addr constant [25 x i8] c"invalid index offnum: %u\00", align 1
@.str.9 = private unnamed_addr constant [47 x i8] c"corrupted line pointer: offset = %u, size = %u\00", align 1
@__func__.PageIndexTupleOverwrite = private unnamed_addr constant [24 x i8] c"PageIndexTupleOverwrite\00", align 1

; Function Attrs: inlinehint nounwind uwtable
define internal ptr @PageGetItem(ptr noundef %0, ptr noundef %1) #3 {
  %3 = alloca ptr, align 8
  %4 = alloca ptr, align 8
  store ptr %0, ptr %3, align 8
  store ptr %1, ptr %4, align 8
  %5 = load ptr, ptr %3, align 8
  %6 = load ptr, ptr %4, align 8
  %7 = load i32, ptr %6, align 4
  %8 = and i32 %7, 32767
  %9 = sext i32 %8 to i64
  %10 = getelementptr inbounds i8, ptr %5, i64 %9
  ret ptr %10
}

; Function Attrs: inlinehint nounwind uwtable
define internal ptr @PageGetItemId(ptr noundef %0, i16 noundef zeroext %1) #3 {
  %3 = alloca ptr, align 8
  %4 = alloca i16, align 2
  store ptr %0, ptr %3, align 8
  store i16 %1, ptr %4, align 2
  %5 = load ptr, ptr %3, align 8
  %6 = getelementptr inbounds nuw %struct.PageHeaderData, ptr %5, i32 0, i32 8
  %7 = load i16, ptr %4, align 2
  %8 = zext i16 %7 to i32
  %9 = sub i32 %8, 1
  %10 = sext i32 %9 to i64
  %11 = getelementptr inbounds [0 x %struct.ItemIdData], ptr %6, i64 0, i64 %10
  ret ptr %11
}

; Function Attrs: inlinehint nounwind uwtable
define internal zeroext i16 @PageGetMaxOffsetNumber(ptr noundef %0) #3 {
  %2 = alloca i16, align 2
  %3 = alloca ptr, align 8
  %4 = alloca ptr, align 8
  %5 = alloca i32, align 4
  store ptr %0, ptr %3, align 8
  call void @llvm.lifetime.start.p0(i64 8, ptr %4) #8
  %6 = load ptr, ptr %3, align 8
  store ptr %6, ptr %4, align 8
  %7 = load ptr, ptr %4, align 8
  %8 = getelementptr inbounds nuw %struct.PageHeaderData, ptr %7, i32 0, i32 3
  %9 = load i16, ptr %8, align 4
  %10 = zext i16 %9 to i64
  %11 = icmp ule i64 %10, 24
  br i1 %11, label %12, label %13

12:                                               ; preds = %1
  store i16 0, ptr %2, align 2
  store i32 1, ptr %5, align 4
  br label %21

13:                                               ; preds = %1
  %14 = load ptr, ptr %4, align 8
  %15 = getelementptr inbounds nuw %struct.PageHeaderData, ptr %14, i32 0, i32 3
  %16 = load i16, ptr %15, align 4
  %17 = zext i16 %16 to i64
  %18 = sub i64 %17, 24
  %19 = udiv i64 %18, 4
  %20 = trunc i64 %19 to i16
  store i16 %20, ptr %2, align 2
  store i32 1, ptr %5, align 4
  br label %21

21:                                               ; preds = %13, %12
  call void @llvm.lifetime.end.p0(i64 8, ptr %4) #8
  %22 = load i16, ptr %2, align 2
  ret i16 %22
}

; Function Attrs: nounwind uwtable
define dso_local zeroext i1 @PageIndexTupleOverwrite(ptr noundef %0, i16 noundef zeroext %1, ptr noundef %2, i64 noundef %3) #0 {
  %5 = alloca i1, align 1
  %6 = alloca ptr, align 8
  %7 = alloca i16, align 2
  %8 = alloca ptr, align 8
  %9 = alloca i64, align 8
  %10 = alloca ptr, align 8
  %11 = alloca ptr, align 8
  %12 = alloca i32, align 4
  %13 = alloca i32, align 4
  %14 = alloca i64, align 8
  %15 = alloca i32, align 4
  %16 = alloca i32, align 4
  %17 = alloca i32, align 4
  %18 = alloca ptr, align 8
  %19 = alloca i32, align 4
  %20 = alloca ptr, align 8
  store ptr %0, ptr %6, align 8
  store i16 %1, ptr %7, align 2
  store ptr %2, ptr %8, align 8
  store i64 %3, ptr %9, align 8
  call void @llvm.lifetime.start.p0(i64 8, ptr %10) #8
  %21 = load ptr, ptr %6, align 8
  store ptr %21, ptr %10, align 8
  call void @llvm.lifetime.start.p0(i64 8, ptr %11) #8
  call void @llvm.lifetime.start.p0(i64 4, ptr %12) #8
  call void @llvm.lifetime.start.p0(i64 4, ptr %13) #8
  call void @llvm.lifetime.start.p0(i64 8, ptr %14) #8
  call void @llvm.lifetime.start.p0(i64 4, ptr %15) #8
  call void @llvm.lifetime.start.p0(i64 4, ptr %16) #8
  %22 = load ptr, ptr %10, align 8
  %23 = getelementptr inbounds nuw %struct.PageHeaderData, ptr %22, i32 0, i32 3
  %24 = load i16, ptr %23, align 4
  %25 = zext i16 %24 to i64
  %26 = icmp ult i64 %25, 24
  br i1 %26, label %65, label %27

27:                                               ; preds = %4
  %28 = load ptr, ptr %10, align 8
  %29 = getelementptr inbounds nuw %struct.PageHeaderData, ptr %28, i32 0, i32 3
  %30 = load i16, ptr %29, align 4
  %31 = zext i16 %30 to i32
  %32 = load ptr, ptr %10, align 8
  %33 = getelementptr inbounds nuw %struct.PageHeaderData, ptr %32, i32 0, i32 4
  %34 = load i16, ptr %33, align 2
  %35 = zext i16 %34 to i32
  %36 = icmp sgt i32 %31, %35
  br i1 %36, label %65, label %37

37:                                               ; preds = %27
  %38 = load ptr, ptr %10, align 8
  %39 = getelementptr inbounds nuw %struct.PageHeaderData, ptr %38, i32 0, i32 4
  %40 = load i16, ptr %39, align 2
  %41 = zext i16 %40 to i32
  %42 = load ptr, ptr %10, align 8
  %43 = getelementptr inbounds nuw %struct.PageHeaderData, ptr %42, i32 0, i32 5
  %44 = load i16, ptr %43, align 4
  %45 = zext i16 %44 to i32
  %46 = icmp sgt i32 %41, %45
  br i1 %46, label %65, label %47

47:                                               ; preds = %37
  %48 = load ptr, ptr %10, align 8
  %49 = getelementptr inbounds nuw %struct.PageHeaderData, ptr %48, i32 0, i32 5
  %50 = load i16, ptr %49, align 4
  %51 = zext i16 %50 to i32
  %52 = icmp sgt i32 %51, 8192
  br i1 %52, label %65, label %53

53:                                               ; preds = %47
  %54 = load ptr, ptr %10, align 8
  %55 = getelementptr inbounds nuw %struct.PageHeaderData, ptr %54, i32 0, i32 5
  %56 = load i16, ptr %55, align 4
  %57 = zext i16 %56 to i64
  %58 = load ptr, ptr %10, align 8
  %59 = getelementptr inbounds nuw %struct.PageHeaderData, ptr %58, i32 0, i32 5
  %60 = load i16, ptr %59, align 4
  %61 = zext i16 %60 to i64
  %62 = add i64 %61, 7
  %63 = and i64 %62, -8
  %64 = icmp ne i64 %57, %63
  br i1 %64, label %65, label %89

65:                                               ; preds = %53, %47, %37, %27, %4
  br label %66

66:                                               ; preds = %65
  br i1 true, label %67, label %69

67:                                               ; preds = %66
  %68 = call zeroext i1 @errstart_cold(i32 noundef 21, ptr noundef null) #9
  br i1 %68, label %71, label %86

69:                                               ; preds = %66
  %70 = call zeroext i1 @errstart(i32 noundef 21, ptr noundef null)
  br i1 %70, label %71, label %86

71:                                               ; preds = %69, %67
  %72 = call i32 @errcode(i32 noundef 16779816)
  %73 = load ptr, ptr %10, align 8
  %74 = getelementptr inbounds nuw %struct.PageHeaderData, ptr %73, i32 0, i32 3
  %75 = load i16, ptr %74, align 4
  %76 = zext i16 %75 to i32
  %77 = load ptr, ptr %10, align 8
  %78 = getelementptr inbounds nuw %struct.PageHeaderData, ptr %77, i32 0, i32 4
  %79 = load i16, ptr %78, align 2
  %80 = zext i16 %79 to i32
  %81 = load ptr, ptr %10, align 8
  %82 = getelementptr inbounds nuw %struct.PageHeaderData, ptr %81, i32 0, i32 5
  %83 = load i16, ptr %82, align 4
  %84 = zext i16 %83 to i32
  %85 = call i32 (ptr, ...) @errmsg(ptr noundef @.str.2, i32 noundef %76, i32 noundef %80, i32 noundef %84)
  call void @errfinish(ptr noundef @.str.1, i32 noundef 1416, ptr noundef @__func__.PageIndexTupleOverwrite)
  br label %86

86:                                               ; preds = %71, %69, %67
  unreachable

87:                                               ; No predecessors!
  br label %88

88:                                               ; preds = %87
  br label %89

89:                                               ; preds = %88, %53
  %90 = load ptr, ptr %6, align 8
  %91 = call zeroext i16 @PageGetMaxOffsetNumber(ptr noundef %90)
  %92 = zext i16 %91 to i32
  store i32 %92, ptr %16, align 4
  %93 = load i16, ptr %7, align 2
  %94 = zext i16 %93 to i32
  %95 = icmp sle i32 %94, 0
  br i1 %95, label %101, label %96

96:                                               ; preds = %89
  %97 = load i16, ptr %7, align 2
  %98 = zext i16 %97 to i32
  %99 = load i32, ptr %16, align 4
  %100 = icmp sgt i32 %98, %99
  br i1 %100, label %101, label %114

101:                                              ; preds = %96, %89
  br label %102

102:                                              ; preds = %101
  br i1 true, label %103, label %105

103:                                              ; preds = %102
  %104 = call zeroext i1 @errstart_cold(i32 noundef 21, ptr noundef null) #9
  br i1 %104, label %107, label %111

105:                                              ; preds = %102
  %106 = call zeroext i1 @errstart(i32 noundef 21, ptr noundef null)
  br i1 %106, label %107, label %111

107:                                              ; preds = %105, %103
  %108 = load i16, ptr %7, align 2
  %109 = zext i16 %108 to i32
  %110 = call i32 (ptr, ...) @errmsg_internal(ptr noundef @.str.8, i32 noundef %109)
  call void @errfinish(ptr noundef @.str.1, i32 noundef 1420, ptr noundef @__func__.PageIndexTupleOverwrite)
  br label %111

111:                                              ; preds = %107, %105, %103
  unreachable

112:                                              ; No predecessors!
  br label %113

113:                                              ; preds = %112
  br label %114

114:                                              ; preds = %113, %96
  %115 = load ptr, ptr %6, align 8
  %116 = load i16, ptr %7, align 2
  %117 = call ptr @PageGetItemId(ptr noundef %115, i16 noundef zeroext %116)
  store ptr %117, ptr %11, align 8
  %118 = load ptr, ptr %11, align 8
  %119 = load i32, ptr %118, align 4
  %120 = lshr i32 %119, 17
  store i32 %120, ptr %12, align 4
  %121 = load ptr, ptr %11, align 8
  %122 = load i32, ptr %121, align 4
  %123 = and i32 %122, 32767
  store i32 %123, ptr %13, align 4
  %124 = load i32, ptr %13, align 4
  %125 = load ptr, ptr %10, align 8
  %126 = getelementptr inbounds nuw %struct.PageHeaderData, ptr %125, i32 0, i32 4
  %127 = load i16, ptr %126, align 2
  %128 = zext i16 %127 to i32
  %129 = icmp ult i32 %124, %128
  br i1 %129, label %147, label %130

130:                                              ; preds = %114
  %131 = load i32, ptr %13, align 4
  %132 = load i32, ptr %12, align 4
  %133 = add i32 %131, %132
  %134 = load ptr, ptr %10, align 8
  %135 = getelementptr inbounds nuw %struct.PageHeaderData, ptr %134, i32 0, i32 5
  %136 = load i16, ptr %135, align 4
  %137 = zext i16 %136 to i32
  %138 = icmp ugt i32 %133, %137
  br i1 %138, label %147, label %139

139:                                              ; preds = %130
  %140 = load i32, ptr %13, align 4
  %141 = zext i32 %140 to i64
  %142 = load i32, ptr %13, align 4
  %143 = zext i32 %142 to i64
  %144 = add i64 %143, 7
  %145 = and i64 %144, -8
  %146 = icmp ne i64 %141, %145
  br i1 %146, label %147, label %161

147:                                              ; preds = %139, %130, %114
  br label %148

148:                                              ; preds = %147
  br i1 true, label %149, label %151

149:                                              ; preds = %148
  %150 = call zeroext i1 @errstart_cold(i32 noundef 21, ptr noundef null) #9
  br i1 %150, label %153, label %158

151:                                              ; preds = %148
  %152 = call zeroext i1 @errstart(i32 noundef 21, ptr noundef null)
  br i1 %152, label %153, label %158

153:                                              ; preds = %151, %149
  %154 = call i32 @errcode(i32 noundef 16779816)
  %155 = load i32, ptr %13, align 4
  %156 = load i32, ptr %12, align 4
  %157 = call i32 (ptr, ...) @errmsg(ptr noundef @.str.9, i32 noundef %155, i32 noundef %156)
  call void @errfinish(ptr noundef @.str.1, i32 noundef 1432, ptr noundef @__func__.PageIndexTupleOverwrite)
  br label %158

158:                                              ; preds = %153, %151, %149
  unreachable

159:                                              ; No predecessors!
  br label %160

160:                                              ; preds = %159
  br label %161

161:                                              ; preds = %160, %139
  %162 = load i32, ptr %12, align 4
  %163 = sext i32 %162 to i64
  %164 = add i64 %163, 7
  %165 = and i64 %164, -8
  %166 = trunc i64 %165 to i32
  store i32 %166, ptr %12, align 4
  %167 = load i64, ptr %9, align 8
  %168 = add i64 %167, 7
  %169 = and i64 %168, -8
  store i64 %169, ptr %14, align 8
  %170 = load i64, ptr %14, align 8
  %171 = load i32, ptr %12, align 4
  %172 = load ptr, ptr %10, align 8
  %173 = getelementptr inbounds nuw %struct.PageHeaderData, ptr %172, i32 0, i32 4
  %174 = load i16, ptr %173, align 2
  %175 = zext i16 %174 to i32
  %176 = load ptr, ptr %10, align 8
  %177 = getelementptr inbounds nuw %struct.PageHeaderData, ptr %176, i32 0, i32 3
  %178 = load i16, ptr %177, align 4
  %179 = zext i16 %178 to i32
  %180 = sub i32 %175, %179
  %181 = add i32 %171, %180
  %182 = sext i32 %181 to i64
  %183 = icmp ugt i64 %170, %182
  br i1 %183, label %184, label %185

184:                                              ; preds = %161
  store i1 false, ptr %5, align 1
  store i32 1, ptr %17, align 4
  br label %275

185:                                              ; preds = %161
  %186 = load i32, ptr %12, align 4
  %187 = load i64, ptr %14, align 8
  %188 = trunc i64 %187 to i32
  %189 = sub i32 %186, %188
  store i32 %189, ptr %15, align 4
  %190 = load i32, ptr %15, align 4
  %191 = icmp ne i32 %190, 0
  br i1 %191, label %192, label %253

192:                                              ; preds = %185
  call void @llvm.lifetime.start.p0(i64 8, ptr %18) #8
  %193 = load ptr, ptr %6, align 8
  %194 = load ptr, ptr %10, align 8
  %195 = getelementptr inbounds nuw %struct.PageHeaderData, ptr %194, i32 0, i32 4
  %196 = load i16, ptr %195, align 2
  %197 = zext i16 %196 to i32
  %198 = sext i32 %197 to i64
  %199 = getelementptr inbounds i8, ptr %193, i64 %198
  store ptr %199, ptr %18, align 8
  call void @llvm.lifetime.start.p0(i64 4, ptr %19) #8
  %200 = load ptr, ptr %18, align 8
  %201 = load i32, ptr %15, align 4
  %202 = sext i32 %201 to i64
  %203 = getelementptr inbounds i8, ptr %200, i64 %202
  %204 = load ptr, ptr %18, align 8
  %205 = load i32, ptr %13, align 4
  %206 = load ptr, ptr %10, align 8
  %207 = getelementptr inbounds nuw %struct.PageHeaderData, ptr %206, i32 0, i32 4
  %208 = load i16, ptr %207, align 2
  %209 = zext i16 %208 to i32
  %210 = sub i32 %205, %209
  %211 = zext i32 %210 to i64
  call void @llvm.memmove.p0.p0.i64(ptr align 1 %203, ptr align 1 %204, i64 %211, i1 false)
  %212 = load i32, ptr %15, align 4
  %213 = load ptr, ptr %10, align 8
  %214 = getelementptr inbounds nuw %struct.PageHeaderData, ptr %213, i32 0, i32 4
  %215 = load i16, ptr %214, align 2
  %216 = zext i16 %215 to i32
  %217 = add i32 %216, %212
  %218 = trunc i32 %217 to i16
  store i16 %218, ptr %214, align 2
  store i32 1, ptr %19, align 4
  br label %219

219:                                              ; preds = %249, %192
  %220 = load i32, ptr %19, align 4
  %221 = load i32, ptr %16, align 4
  %222 = icmp sle i32 %220, %221
  br i1 %222, label %223, label %252

223:                                              ; preds = %219
  call void @llvm.lifetime.start.p0(i64 8, ptr %20) #8
  %224 = load ptr, ptr %6, align 8
  %225 = load i32, ptr %19, align 4
  %226 = trunc i32 %225 to i16
  %227 = call ptr @PageGetItemId(ptr noundef %224, i16 noundef zeroext %226)
  store ptr %227, ptr %20, align 8
  %228 = load ptr, ptr %20, align 8
  %229 = load i32, ptr %228, align 4
  %230 = lshr i32 %229, 17
  %231 = icmp ne i32 %230, 0
  br i1 %231, label %232, label %248

232:                                              ; preds = %223
  %233 = load ptr, ptr %20, align 8
  %234 = load i32, ptr %233, align 4
  %235 = and i32 %234, 32767
  %236 = load i32, ptr %13, align 4
  %237 = icmp ule i32 %235, %236
  br i1 %237, label %238, label %248

238:                                              ; preds = %232
  %239 = load i32, ptr %15, align 4
  %240 = load ptr, ptr %20, align 8
  %241 = load i32, ptr %240, align 4
  %242 = and i32 %241, 32767
  %243 = add i32 %242, %239
  %244 = load i32, ptr %240, align 4
  %245 = and i32 %243, 32767
  %246 = and i32 %244, -32768
  %247 = or i32 %246, %245
  store i32 %247, ptr %240, align 4
  br label %248

248:                                              ; preds = %238, %232, %223
  call void @llvm.lifetime.end.p0(i64 8, ptr %20) #8
  br label %249

249:                                              ; preds = %248
  %250 = load i32, ptr %19, align 4
  %251 = add i32 %250, 1
  store i32 %251, ptr %19, align 4
  br label %219, !llvm.loop !29

252:                                              ; preds = %219
  call void @llvm.lifetime.end.p0(i64 4, ptr %19) #8
  call void @llvm.lifetime.end.p0(i64 8, ptr %18) #8
  br label %253

253:                                              ; preds = %252, %185
  %254 = load i32, ptr %13, align 4
  %255 = load i32, ptr %15, align 4
  %256 = add i32 %254, %255
  %257 = load ptr, ptr %11, align 8
  %258 = load i32, ptr %257, align 4
  %259 = and i32 %256, 32767
  %260 = and i32 %258, -32768
  %261 = or i32 %260, %259
  store i32 %261, ptr %257, align 4
  %262 = load i64, ptr %9, align 8
  %263 = trunc i64 %262 to i32
  %264 = load ptr, ptr %11, align 8
  %265 = load i32, ptr %264, align 4
  %266 = and i32 %263, 32767
  %267 = shl i32 %266, 17
  %268 = and i32 %265, 131071
  %269 = or i32 %268, %267
  store i32 %269, ptr %264, align 4
  %270 = load ptr, ptr %6, align 8
  %271 = load ptr, ptr %11, align 8
  %272 = call ptr @PageGetItem(ptr noundef %270, ptr noundef %271)
  %273 = load ptr, ptr %8, align 8
  %274 = load i64, ptr %9, align 8
  call void @llvm.memcpy.p0.p0.i64(ptr align 1 %272, ptr align 1 %273, i64 %274, i1 false)
  store i1 true, ptr %5, align 1
  store i32 1, ptr %17, align 4
  br label %275

275:                                              ; preds = %253, %184
  call void @llvm.lifetime.end.p0(i64 4, ptr %16) #8
  call void @llvm.lifetime.end.p0(i64 4, ptr %15) #8
  call void @llvm.lifetime.end.p0(i64 8, ptr %14) #8
  call void @llvm.lifetime.end.p0(i64 4, ptr %13) #8
  call void @llvm.lifetime.end.p0(i64 4, ptr %12) #8
  call void @llvm.lifetime.end.p0(i64 8, ptr %11) #8
  call void @llvm.lifetime.end.p0(i64 8, ptr %10) #8
  %276 = load i1, ptr %5, align 1
  ret i1 %276
}