; Function Attrs: nounwind uwtable
define dso_local noundef zeroext i1 @PageIndexTupleOverwrite(ptr noundef captures(none) %0, i16 noundef zeroext %1, ptr noundef readonly captures(none) %2, i64 noundef %3) local_unnamed_addr #3 {
  %5 = getelementptr inbounds nuw i8, ptr %0, i64 12
  %6 = load i16, ptr %5, align 4
  %7 = icmp ult i16 %6, 24
  br i1 %7, label %21, label %8

8:                                                ; preds = %4
  %9 = getelementptr inbounds nuw i8, ptr %0, i64 14
  %10 = load i16, ptr %9, align 2
  %11 = icmp ugt i16 %6, %10
  br i1 %11, label %21, label %12

12:                                               ; preds = %8
  %13 = getelementptr inbounds nuw i8, ptr %0, i64 16
  %14 = load i16, ptr %13, align 4
  %15 = icmp ugt i16 %10, %14
  %16 = icmp ugt i16 %14, 8192
  %or.cond = or i1 %15, %16
  br i1 %or.cond, label %21, label %17

17:                                               ; preds = %12
  %18 = zext nneg i16 %14 to i64
  %19 = add nuw nsw i64 %18, 7
  %20 = and i64 %19, 32760
  %.not = icmp eq i64 %20, %18
  br i1 %.not, label %33, label %21

21:                                               ; preds = %17, %12, %8, %4
  %22 = tail call zeroext i1 @errstart_cold(i32 noundef 21, ptr noundef null) #13
  tail call void @llvm.assume(i1 %22)
  %23 = tail call i32 @errcode(i32 noundef 16779816) #12
  %24 = load i16, ptr %5, align 4
  %25 = zext i16 %24 to i32
  %26 = getelementptr inbounds nuw i8, ptr %0, i64 14
  %27 = load i16, ptr %26, align 2
  %28 = zext i16 %27 to i32
  %29 = getelementptr inbounds nuw i8, ptr %0, i64 16
  %30 = load i16, ptr %29, align 4
  %31 = zext i16 %30 to i32
  %32 = tail call i32 (ptr, ...) @errmsg(ptr noundef nonnull @.str.2, i32 noundef %25, i32 noundef %28, i32 noundef %31) #12
  tail call void @errfinish(ptr noundef nonnull @.str.1, i32 noundef 1416, ptr noundef nonnull @__func__.PageIndexTupleOverwrite) #12
  unreachable

33:                                               ; preds = %17
  %34 = icmp eq i16 %6, 24
  %35 = zext i16 %6 to i32
  %36 = add nuw nsw i32 %35, 262120
  %37 = lshr i32 %36, 2
  %38 = trunc i32 %37 to i16
  %.0.i = select i1 %34, i16 0, i16 %38
  %39 = freeze i16 %.0.i
  %40 = zext i16 %39 to i64
  %41 = add i16 %1, -1
  %or.cond82.not = icmp ult i16 %41, %39
  br i1 %or.cond82.not, label %46, label %42

42:                                               ; preds = %33
  %43 = zext i16 %1 to i32
  %44 = tail call zeroext i1 @errstart_cold(i32 noundef 21, ptr noundef null) #13
  tail call void @llvm.assume(i1 %44)
  %45 = tail call i32 (ptr, ...) @errmsg_internal(ptr noundef nonnull @.str.8, i32 noundef %43) #12
  tail call void @errfinish(ptr noundef nonnull @.str.1, i32 noundef 1420, ptr noundef nonnull @__func__.PageIndexTupleOverwrite) #12
  unreachable

46:                                               ; preds = %33
  %47 = getelementptr inbounds nuw i8, ptr %0, i64 24
  %48 = zext nneg i16 %1 to i64
  %49 = add nsw i64 %48, -1
  %50 = getelementptr inbounds [0 x %struct.ItemIdData], ptr %47, i64 0, i64 %49
  %51 = load i32, ptr %50, align 4
  %52 = lshr i32 %51, 17
  %53 = and i32 %51, 32767
  %54 = zext i16 %10 to i32
  %55 = icmp samesign ult i32 %53, %54
  %56 = add nuw nsw i32 %53, %52
  %57 = zext nneg i16 %14 to i32
  %58 = icmp samesign ugt i32 %56, %57
  %or.cond87 = select i1 %55, i1 true, i1 %58
  br i1 %or.cond87, label %63, label %59

59:                                               ; preds = %46
  %60 = zext nneg i32 %53 to i64
  %61 = add nuw nsw i64 %60, 7
  %62 = and i64 %61, 65528
  %.not77 = icmp eq i64 %62, %60
  br i1 %.not77, label %67, label %63

63:                                               ; preds = %59, %46
  %64 = tail call zeroext i1 @errstart_cold(i32 noundef 21, ptr noundef null) #13
  tail call void @llvm.assume(i1 %64)
  %65 = tail call i32 @errcode(i32 noundef 16779816) #12
  %66 = tail call i32 (ptr, ...) @errmsg(ptr noundef nonnull @.str.9, i32 noundef %53, i32 noundef %52) #12
  tail call void @errfinish(ptr noundef nonnull @.str.1, i32 noundef 1432, ptr noundef nonnull @__func__.PageIndexTupleOverwrite) #12
  unreachable

67:                                               ; preds = %59
  %narrow = add nuw nsw i32 %52, 7
  %68 = and i32 %narrow, 65528
  %69 = add i64 %3, 7
  %70 = and i64 %69, -8
  %71 = sub nsw i32 %54, %35
  %72 = add nsw i32 %71, %68
  %73 = sext i32 %72 to i64
  %74 = icmp ule i64 %70, %73
  br i1 %74, label %75, label %107

75:                                               ; preds = %67
  %76 = trunc i64 %70 to i32
  %77 = sub i32 %68, %76
  %.not78 = icmp eq i32 %68, %76
  br i1 %.not78, label %.loopexit, label %.lr.ph.preheader

.lr.ph.preheader:                                 ; preds = %75
  %78 = zext i16 %10 to i64
  %79 = getelementptr inbounds nuw i8, ptr %0, i64 %78
  %80 = sext i32 %77 to i64
  %81 = getelementptr inbounds i8, ptr %79, i64 %80
  %82 = sub nsw i32 %53, %54
  %83 = zext i32 %82 to i64
  tail call void @llvm.memmove.p0.p0.i64(ptr nonnull align 1 %81, ptr align 1 %79, i64 %83, i1 false)
  %84 = load i16, ptr %9, align 2
  %85 = trunc i32 %77 to i16
  %86 = add i16 %84, %85
  store i16 %86, ptr %9, align 2
  br label %.lr.ph

.lr.ph:                                           ; preds = %.lr.ph.preheader, %96
  %indvars.iv = phi i64 [ 1, %.lr.ph.preheader ], [ %indvars.iv.next, %96 ]
  %87 = add nsw i64 %indvars.iv, -1
  %88 = getelementptr inbounds [0 x %struct.ItemIdData], ptr %47, i64 0, i64 %87
  %89 = load i32, ptr %88, align 4
  %.not80 = icmp ult i32 %89, 131072
  %90 = and i32 %89, 32767
  %.not81 = icmp samesign ugt i32 %90, %53
  %or.cond83 = select i1 %.not80, i1 true, i1 %.not81
  br i1 %or.cond83, label %96, label %91

91:                                               ; preds = %.lr.ph
  %92 = add i32 %89, %77
  %93 = and i32 %92, 32767
  %94 = and i32 %89, -32768
  %95 = or disjoint i32 %93, %94
  store i32 %95, ptr %88, align 4
  br label %96

96:                                               ; preds = %91, %.lr.ph
  %indvars.iv.next = add nuw nsw i64 %indvars.iv, 1
  %exitcond.not = icmp eq i64 %indvars.iv, %40
  br i1 %exitcond.not, label %.loopexit, label %.lr.ph, !llvm.loop !25

.loopexit:                                        ; preds = %96, %75
  %97 = add i32 %77, %51
  %98 = load i32, ptr %50, align 4
  %99 = and i32 %97, 32767
  %100 = and i32 %98, 98304
  %101 = trunc i64 %3 to i32
  %102 = shl i32 %101, 17
  %103 = or disjoint i32 %100, %102
  %104 = or disjoint i32 %103, %99
  store i32 %104, ptr %50, align 4
  %105 = zext nneg i32 %99 to i64
  %106 = getelementptr inbounds nuw i8, ptr %0, i64 %105
  tail call void @llvm.memcpy.p0.p0.i64(ptr align 1 %106, ptr align 1 %2, i64 %3, i1 false)
  br label %107

107:                                              ; preds = %67, %.loopexit
  ret i1 %74
}